target datalayout = "e-m:e-p270:32:32-p271:32:32-p272:64:64-i64:64-i128:128-f80:128-n8:16:32:64-S128"
target triple = "x86_64-pc-linux-gnu"

%"struct.std::pair.12" = type { ptr, ptr }

; Function Attrs: mustprogress nounwind uwtable
define linkonce_odr noundef i32 @_ZN32pxrInternal_v0_24__pxrReserved__22ArchCountTrailingZerosEm(i64 noundef %0) #5 comdat {
  %2 = alloca i64, align 8
  store i64 %0, ptr %2, align 8
  %3 = load i64, ptr %2, align 8
  %4 = call i64 @llvm.cttz.i64(i64 %3, i1 true)
  %5 = trunc i64 %4 to i32
  ret i32 %5
}

; Function Attrs: mustprogress nounwind uwtable
define linkonce_odr void @_ZNSt4pairIPKcS1_EC2IRS1_S4_TnNSt9enable_ifIXaaclsr5_PCCPE22_MoveConstructiblePairIT_T0_EEclsr5_PCCPE30_ImplicitlyMoveConvertiblePairIS6_S7_EEEbE4typeELb1EEEOS6_OS7_(ptr noundef nonnull align 8 dereferenceable(16) %0, ptr noundef nonnull align 8 dereferenceable(8) %1, ptr noundef nonnull align 8 dereferenceable(8) %2) unnamed_addr #5 comdat align 2 {
  %4 = alloca ptr, align 8
  %5 = alloca ptr, align 8
  %6 = alloca ptr, align 8
  store ptr %0, ptr %4, align 8
  store ptr %1, ptr %5, align 8
  store ptr %2, ptr %6, align 8
  %7 = load ptr, ptr %4, align 8
  %8 = getelementptr inbounds nuw %"struct.std::pair.12", ptr %7, i32 0, i32 0
  %9 = load ptr, ptr %5, align 8
  %10 = load ptr, ptr %9, align 8
  store ptr %10, ptr %8, align 8
  %11 = getelementptr inbounds nuw %"struct.std::pair.12", ptr %7, i32 0, i32 1
  %12 = load ptr, ptr %6, align 8
  %13 = load ptr, ptr %12, align 8
  store ptr %13, ptr %11, align 8
  ret void
}

; Function Attrs: mustprogress uwtable
define internal { ptr, ptr } @_ZN32pxrInternal_v0_24__pxrReserved__L8MismatchEPKcS1_S1_(ptr noundef %0, ptr noundef %1, ptr noundef %2) #0 {
  %4 = alloca %"struct.std::pair.12", align 8
  %5 = alloca ptr, align 8
  %6 = alloca ptr, align 8
  %7 = alloca ptr, align 8
  %8 = alloca i64, align 8
  %9 = alloca i64, align 8
  %10 = alloca i32, align 4
  %11 = alloca i64, align 8
  %12 = alloca i64, align 8
  %13 = alloca i64, align 8
  %14 = alloca i32, align 4
  store ptr %0, ptr %5, align 8
  store ptr %1, ptr %6, align 8
  store ptr %2, ptr %7, align 8
  %15 = load ptr, ptr %5, align 8
  %16 = load i8, ptr %15, align 1
  %17 = sext i8 %16 to i32
  %18 = load ptr, ptr %7, align 8
  %19 = load i8, ptr %18, align 1
  %20 = sext i8 %19 to i32
  %21 = icmp ne i32 %17, %20
  br i1 %21, label %22, label %23

22:                                               ; preds = %3
  call void @_ZNSt4pairIPKcS1_EC2IRS1_S4_TnNSt9enable_ifIXaaclsr5_PCCPE22_MoveConstructiblePairIT_T0_EEclsr5_PCCPE30_ImplicitlyMoveConvertiblePairIS6_S7_EEEbE4typeELb1EEEOS6_OS7_(ptr noundef nonnull align 8 dereferenceable(16) %4, ptr noundef nonnull align 8 dereferenceable(8) %5, ptr noundef nonnull align 8 dereferenceable(8) %7)
  br label %177

23:                                               ; preds = %3
  store i64 8, ptr %8, align 8
  %24 = load ptr, ptr %6, align 8
  %25 = load ptr, ptr %5, align 8
  %26 = ptrtoint ptr %24 to i64
  %27 = ptrtoint ptr %25 to i64
  %28 = sub i64 %26, %27
  %29 = udiv i64 %28, 8
  store i64 %29, ptr %9, align 8
  %30 = load ptr, ptr %6, align 8
  %31 = load ptr, ptr %5, align 8
  %32 = ptrtoint ptr %30 to i64
  %33 = ptrtoint ptr %31 to i64
  %34 = sub i64 %32, %33
  %35 = urem i64 %34, 8
  %36 = trunc i64 %35 to i32
  store i32 %36, ptr %10, align 4
  br label %37

37:                                               ; preds = %64, %23
  %38 = load i64, ptr %9, align 8
  %39 = add i64 %38, -1
  store i64 %39, ptr %9, align 8
  %40 = icmp ne i64 %38, 0
  br i1 %40, label %41, label %69

41:                                               ; preds = %37
  %42 = load ptr, ptr %5, align 8
  call void @llvm.memcpy.p0.p0.i64(ptr align 8 %11, ptr align 1 %42, i64 8, i1 false)
  %43 = load ptr, ptr %7, align 8
  call void @llvm.memcpy.p0.p0.i64(ptr align 8 %12, ptr align 1 %43, i64 8, i1 false)
  %44 = load i64, ptr %11, align 8
  %45 = load i64, ptr %12, align 8
  %46 = xor i64 %44, %45
  store i64 %46, ptr %13, align 8
  %47 = load i64, ptr %13, align 8
  %48 = icmp ne i64 %47, 0
  br i1 %48, label %49, label %63

49:                                               ; preds = %41
  %50 = load i64, ptr %13, align 8
  %51 = call noundef i32 @_ZN32pxrInternal_v0_24__pxrReserved__22ArchCountTrailingZerosEm(i64 noundef %50)
  %52 = sext i32 %51 to i64
  %53 = udiv i64 %52, 8
  %54 = trunc i64 %53 to i32
  store i32 %54, ptr %14, align 4
  %55 = load i32, ptr %14, align 4
  %56 = load ptr, ptr %5, align 8
  %57 = sext i32 %55 to i64
  %58 = getelementptr inbounds i8, ptr %56, i64 %57
  store ptr %58, ptr %5, align 8
  %59 = load i32, ptr %14, align 4
  %60 = load ptr, ptr %7, align 8
  %61 = sext i32 %59 to i64
  %62 = getelementptr inbounds i8, ptr %60, i64 %61
  store ptr %62, ptr %7, align 8
  call void @_ZNSt4pairIPKcS1_EC2IRS1_S4_TnNSt9enable_ifIXaaclsr5_PCCPE22_MoveConstructiblePairIT_T0_EEclsr5_PCCPE30_ImplicitlyMoveConvertiblePairIS6_S7_EEEbE4typeELb1EEEOS6_OS7_(ptr noundef nonnull align 8 dereferenceable(16) %4, ptr noundef nonnull align 8 dereferenceable(8) %5, ptr noundef nonnull align 8 dereferenceable(8) %7)
  br label %177

63:                                               ; preds = %41
  br label %64

64:                                               ; preds = %63
  %65 = load ptr, ptr %5, align 8
  %66 = getelementptr inbounds i8, ptr %65, i64 8
  store ptr %66, ptr %5, align 8
  %67 = load ptr, ptr %7, align 8
  %68 = getelementptr inbounds i8, ptr %67, i64 8
  store ptr %68, ptr %7, align 8
  br label %37, !llvm.loop !35

69:                                               ; preds = %37
  %70 = load i32, ptr %10, align 4
  switch i32 %70, label %176 [
    i32 7, label %71
    i32 6, label %86
    i32 5, label %101
    i32 4, label %116
    i32 3, label %131
    i32 2, label %146
    i32 1, label %161
  ]

71:                                               ; preds = %69
  %72 = load ptr, ptr %5, align 8
  %73 = load i8, ptr %72, align 1
  %74 = sext i8 %73 to i32
  %75 = load ptr, ptr %7, align 8
  %76 = load i8, ptr %75, align 1
  %77 = sext i8 %76 to i32
  %78 = icmp ne i32 %74, %77
  br i1 %78, label %79, label %80

79:                                               ; preds = %71
  br label %176

80:                                               ; preds = %71
  %81 = load ptr, ptr %5, align 8
  %82 = getelementptr inbounds i8, ptr %81, i32 1
  store ptr %82, ptr %5, align 8
  %83 = load ptr, ptr %7, align 8
  %84 = getelementptr inbounds i8, ptr %83, i32 1
  store ptr %84, ptr %7, align 8
  br label %85

85:                                               ; preds = %80
  br label %86

86:                                               ; preds = %85, %69
  %87 = load ptr, ptr %5, align 8
  %88 = load i8, ptr %87, align 1
  %89 = sext i8 %88 to i32
  %90 = load ptr, ptr %7, align 8
  %91 = load i8, ptr %90, align 1
  %92 = sext i8 %91 to i32
  %93 = icmp ne i32 %89, %92
  br i1 %93, label %94, label %95

94:                                               ; preds = %86
  br label %176

95:                                               ; preds = %86
  %96 = load ptr, ptr %5, align 8
  %97 = getelementptr inbounds i8, ptr %96, i32 1
  store ptr %97, ptr %5, align 8
  %98 = load ptr, ptr %7, align 8
  %99 = getelementptr inbounds i8, ptr %98, i32 1
  store ptr %99, ptr %7, align 8
  br label %100

100:                                              ; preds = %95
  br label %101

101:                                              ; preds = %100, %69
  %102 = load ptr, ptr %5, align 8
  %103 = load i8, ptr %102, align 1
  %104 = sext i8 %103 to i32
  %105 = load ptr, ptr %7, align 8
  %106 = load i8, ptr %105, align 1
  %107 = sext i8 %106 to i32
  %108 = icmp ne i32 %104, %107
  br i1 %108, label %109, label %110

109:                                              ; preds = %101
  br label %176

110:                                              ; preds = %101
  %111 = load ptr, ptr %5, align 8
  %112 = getelementptr inbounds i8, ptr %111, i32 1
  store ptr %112, ptr %5, align 8
  %113 = load ptr, ptr %7, align 8
  %114 = getelementptr inbounds i8, ptr %113, i32 1
  store ptr %114, ptr %7, align 8
  br label %115

115:                                              ; preds = %110
  br label %116

116:                                              ; preds = %115, %69
  %117 = load ptr, ptr %5, align 8
  %118 = load i8, ptr %117, align 1
  %119 = sext i8 %118 to i32
  %120 = load ptr, ptr %7, align 8
  %121 = load i8, ptr %120, align 1
  %122 = sext i8 %121 to i32
  %123 = icmp ne i32 %119, %122
  br i1 %123, label %124, label %125

124:                                              ; preds = %116
  br label %176

125:                                              ; preds = %116
  %126 = load ptr, ptr %5, align 8
  %127 = getelementptr inbounds i8, ptr %126, i32 1
  store ptr %127, ptr %5, align 8
  %128 = load ptr, ptr %7, align 8
  %129 = getelementptr inbounds i8, ptr %128, i32 1
  store ptr %129, ptr %7, align 8
  br label %130

130:                                              ; preds = %125
  br label %131

131:                                              ; preds = %130, %69
  %132 = load ptr, ptr %5, align 8
  %133 = load i8, ptr %132, align 1
  %134 = sext i8 %133 to i32
  %135 = load ptr, ptr %7, align 8
  %136 = load i8, ptr %135, align 1
  %137 = sext i8 %136 to i32
  %138 = icmp ne i32 %134, %137
  br i1 %138, label %139, label %140

139:                                              ; preds = %131
  br label %176

140:                                              ; preds = %131
  %141 = load ptr, ptr %5, align 8
  %142 = getelementptr inbounds i8, ptr %141, i32 1
  store ptr %142, ptr %5, align 8
  %143 = load ptr, ptr %7, align 8
  %144 = getelementptr inbounds i8, ptr %143, i32 1
  store ptr %144, ptr %7, align 8
  br label %145

145:                                              ; preds = %140
  br label %146

146:                                              ; preds = %145, %69
  %147 = load ptr, ptr %5, align 8
  %148 = load i8, ptr %147, align 1
  %149 = sext i8 %148 to i32
  %150 = load ptr, ptr %7, align 8
  %151 = load i8, ptr %150, align 1
  %152 = sext i8 %151 to i32
  %153 = icmp ne i32 %149, %152
  br i1 %153, label %154, label %155

154:                                              ; preds = %146
  br label %176

155:                                              ; preds = %146
  %156 = load ptr, ptr %5, align 8
  %157 = getelementptr inbounds i8, ptr %156, i32 1
  store ptr %157, ptr %5, align 8
  %158 = load ptr, ptr %7, align 8
  %159 = getelementptr inbounds i8, ptr %158, i32 1
  store ptr %159, ptr %7, align 8
  br label %160

160:                                              ; preds = %155
  br label %161

161:                                              ; preds = %160, %69
  %162 = load ptr, ptr %5, align 8
  %163 = load i8, ptr %162, align 1
  %164 = sext i8 %163 to i32
  %165 = load ptr, ptr %7, align 8
  %166 = load i8, ptr %165, align 1
  %167 = sext i8 %166 to i32
  %168 = icmp ne i32 %164, %167
  br i1 %168, label %169, label %170

169:                                              ; preds = %161
  br label %176

170:                                              ; preds = %161
  %171 = load ptr, ptr %5, align 8
  %172 = getelementptr inbounds i8, ptr %171, i32 1
  store ptr %172, ptr %5, align 8
  %173 = load ptr, ptr %7, align 8
  %174 = getelementptr inbounds i8, ptr %173, i32 1
  store ptr %174, ptr %7, align 8
  br label %175

175:                                              ; preds = %170
  br label %176

176:                                              ; preds = %175, %169, %154, %139, %124, %109, %94, %79, %69
  call void @_ZNSt4pairIPKcS1_EC2IRS1_S4_TnNSt9enable_ifIXaaclsr5_PCCPE22_MoveConstructiblePairIT_T0_EEclsr5_PCCPE30_ImplicitlyMoveConvertiblePairIS6_S7_EEEbE4typeELb1EEEOS6_OS7_(ptr noundef nonnull align 8 dereferenceable(16) %4, ptr noundef nonnull align 8 dereferenceable(8) %5, ptr noundef nonnull align 8 dereferenceable(8) %7)
  br label %177

177:                                              ; preds = %176, %49, %22
  %178 = load { ptr, ptr }, ptr %4, align 8
  ret { ptr, ptr } %178
}