; Function Attrs: mustprogress nofree norecurse nosync nounwind willreturn memory(read, inaccessiblemem: none) uwtable
define internal fastcc { ptr, ptr } @_ZN32pxrInternal_v0_24__pxrReserved__L8MismatchEPKcS1_S1_(ptr noundef %0, ptr noundef %1, ptr noundef %2) unnamed_addr #9 {
  %4 = load i8, ptr %0, align 1
  %5 = load i8, ptr %2, align 1
  %.not = icmp eq i8 %4, %5
  br i1 %.not, label %6, label %66

6:                                                ; preds = %3
  %7 = ptrtoint ptr %1 to i64
  %8 = ptrtoint ptr %0 to i64
  %9 = sub i64 %7, %8
  %10 = trunc i64 %9 to i32
  %11 = and i32 %10, 7
  %.not1162 = icmp ult i64 %9, 8
  br i1 %.not1162, label %._crit_edge, label %.lr.ph.preheader

.lr.ph.preheader:                                 ; preds = %6
  %12 = lshr i64 %9, 3
  %13 = and i64 %9, -8
  %scevgep = getelementptr i8, ptr %0, i64 %13
  %scevgep71 = getelementptr i8, ptr %2, i64 %13
  br label %.lr.ph

.lr.ph:                                           ; preds = %.lr.ph.preheader, %20
  %.in = phi i64 [ %21, %20 ], [ %12, %.lr.ph.preheader ]
  %.05164 = phi ptr [ %23, %20 ], [ %2, %.lr.ph.preheader ]
  %.05263 = phi ptr [ %22, %20 ], [ %0, %.lr.ph.preheader ]
  %.0.copyload5 = load i64, ptr %.05263, align 1
  %.0.copyload = load i64, ptr %.05164, align 1
  %.not19 = icmp eq i64 %.0.copyload5, %.0.copyload
  br i1 %.not19, label %20, label %14

14:                                               ; preds = %.lr.ph
  %15 = xor i64 %.0.copyload, %.0.copyload5
  %16 = tail call range(i64 0, 65) i64 @llvm.cttz.i64(i64 %15, i1 true)
  %17 = lshr i64 %16, 3
  %18 = getelementptr inbounds i8, ptr %.05263, i64 %17
  %19 = getelementptr inbounds i8, ptr %.05164, i64 %17
  br label %66

20:                                               ; preds = %.lr.ph
  %21 = add i64 %.in, -1
  %22 = getelementptr inbounds i8, ptr %.05263, i64 8
  %23 = getelementptr inbounds i8, ptr %.05164, i64 8
  %.not11 = icmp eq i64 %21, 0
  br i1 %.not11, label %._crit_edge, label %.lr.ph, !llvm.loop !48

._crit_edge:                                      ; preds = %20, %6
  %.052.lcssa = phi ptr [ %0, %6 ], [ %scevgep, %20 ]
  %.051.lcssa = phi ptr [ %2, %6 ], [ %scevgep71, %20 ]
  switch i32 %11, label %default.unreachable [
    i32 7, label %24
    i32 6, label %30
    i32 5, label %36
    i32 4, label %42
    i32 3, label %48
    i32 2, label %54
    i32 1, label %60
    i32 0, label %66
  ]

24:                                               ; preds = %._crit_edge
  %25 = load i8, ptr %.052.lcssa, align 1
  %26 = load i8, ptr %.051.lcssa, align 1
  %.not12 = icmp eq i8 %25, %26
  br i1 %.not12, label %27, label %66

27:                                               ; preds = %24
  %28 = getelementptr inbounds i8, ptr %.052.lcssa, i64 1
  %29 = getelementptr inbounds i8, ptr %.051.lcssa, i64 1
  br label %30

30:                                               ; preds = %._crit_edge, %27
  %.254 = phi ptr [ %.052.lcssa, %._crit_edge ], [ %28, %27 ]
  %.2 = phi ptr [ %.051.lcssa, %._crit_edge ], [ %29, %27 ]
  %31 = load i8, ptr %.254, align 1
  %32 = load i8, ptr %.2, align 1
  %.not13 = icmp eq i8 %31, %32
  br i1 %.not13, label %33, label %66

33:                                               ; preds = %30
  %34 = getelementptr inbounds i8, ptr %.254, i64 1
  %35 = getelementptr inbounds i8, ptr %.2, i64 1
  br label %36

36:                                               ; preds = %._crit_edge, %33
  %.355 = phi ptr [ %.052.lcssa, %._crit_edge ], [ %34, %33 ]
  %.3 = phi ptr [ %.051.lcssa, %._crit_edge ], [ %35, %33 ]
  %37 = load i8, ptr %.355, align 1
  %38 = load i8, ptr %.3, align 1
  %.not14 = icmp eq i8 %37, %38
  br i1 %.not14, label %39, label %66

39:                                               ; preds = %36
  %40 = getelementptr inbounds i8, ptr %.355, i64 1
  %41 = getelementptr inbounds i8, ptr %.3, i64 1
  br label %42

42:                                               ; preds = %._crit_edge, %39
  %.456 = phi ptr [ %.052.lcssa, %._crit_edge ], [ %40, %39 ]
  %.4 = phi ptr [ %.051.lcssa, %._crit_edge ], [ %41, %39 ]
  %43 = load i8, ptr %.456, align 1
  %44 = load i8, ptr %.4, align 1
  %.not15 = icmp eq i8 %43, %44
  br i1 %.not15, label %45, label %66

45:                                               ; preds = %42
  %46 = getelementptr inbounds i8, ptr %.456, i64 1
  %47 = getelementptr inbounds i8, ptr %.4, i64 1
  br label %48

48:                                               ; preds = %._crit_edge, %45
  %.557 = phi ptr [ %.052.lcssa, %._crit_edge ], [ %46, %45 ]
  %.5 = phi ptr [ %.051.lcssa, %._crit_edge ], [ %47, %45 ]
  %49 = load i8, ptr %.557, align 1
  %50 = load i8, ptr %.5, align 1
  %.not16 = icmp eq i8 %49, %50
  br i1 %.not16, label %51, label %66

51:                                               ; preds = %48
  %52 = getelementptr inbounds i8, ptr %.557, i64 1
  %53 = getelementptr inbounds i8, ptr %.5, i64 1
  br label %54

54:                                               ; preds = %._crit_edge, %51
  %.658 = phi ptr [ %.052.lcssa, %._crit_edge ], [ %52, %51 ]
  %.6 = phi ptr [ %.051.lcssa, %._crit_edge ], [ %53, %51 ]
  %55 = load i8, ptr %.658, align 1
  %56 = load i8, ptr %.6, align 1
  %.not17 = icmp eq i8 %55, %56
  br i1 %.not17, label %57, label %66

57:                                               ; preds = %54
  %58 = getelementptr inbounds i8, ptr %.658, i64 1
  %59 = getelementptr inbounds i8, ptr %.6, i64 1
  br label %60

60:                                               ; preds = %._crit_edge, %57
  %.759 = phi ptr [ %.052.lcssa, %._crit_edge ], [ %58, %57 ]
  %.7 = phi ptr [ %.051.lcssa, %._crit_edge ], [ %59, %57 ]
  %61 = load i8, ptr %.759, align 1
  %62 = load i8, ptr %.7, align 1
  %.not18 = icmp eq i8 %61, %62
  br i1 %.not18, label %63, label %66

63:                                               ; preds = %60
  %64 = getelementptr inbounds i8, ptr %.759, i64 1
  %65 = getelementptr inbounds i8, ptr %.7, i64 1
  br label %66

default.unreachable:                              ; preds = %._crit_edge
  unreachable

66:                                               ; preds = %63, %24, %30, %36, %42, %48, %54, %60, %._crit_edge, %3, %14
  %.sroa.4.0 = phi ptr [ %19, %14 ], [ %2, %3 ], [ %.051.lcssa, %._crit_edge ], [ %65, %63 ], [ %.7, %60 ], [ %.6, %54 ], [ %.5, %48 ], [ %.4, %42 ], [ %.3, %36 ], [ %.2, %30 ], [ %.051.lcssa, %24 ]
  %.sroa.0.0 = phi ptr [ %18, %14 ], [ %0, %3 ], [ %.052.lcssa, %._crit_edge ], [ %64, %63 ], [ %.759, %60 ], [ %.658, %54 ], [ %.557, %48 ], [ %.456, %42 ], [ %.355, %36 ], [ %.254, %30 ], [ %.052.lcssa, %24 ]
  %.fca.0.insert = insertvalue { ptr, ptr } poison, ptr %.sroa.0.0, 0
  %.fca.1.insert = insertvalue { ptr, ptr } %.fca.0.insert, ptr %.sroa.4.0, 1
  ret { ptr, ptr } %.fca.1.insert
}